target datalayout = "e-m:e-p270:32:32-p271:32:32-p272:64:64-i64:64-i128:128-f80:128-n8:16:32:64-S128"
target triple = "x86_64-pc-linux-gnu"

%"class.marisa::grimoire::io::Reader" = type <{ ptr, i32, [4 x i8], ptr, i8, [7 x i8] }>

@_ZN6marisa8grimoire2io6ReaderC1Ev = unnamed_addr alias void (ptr), ptr @_ZN6marisa8grimoire2io6ReaderC2Ev
@_ZN6marisa8grimoire2io6ReaderD1Ev = unnamed_addr alias void (ptr), ptr @_ZN6marisa8grimoire2io6ReaderD2Ev

; Function Attrs: inlinehint mustprogress nounwind uwtable
define linkonce_odr void @_ZSt4swapIbENSt9enable_ifIXsr6__and_ISt6__not_ISt15__is_tuple_likeIT_EESt21is_move_constructibleIS3_ESt18is_move_assignableIS3_EEE5valueEvE4typeERS3_SC_(ptr noundef nonnull align 1 dereferenceable(1) %0, ptr noundef nonnull align 1 dereferenceable(1) %1) #8 comdat {
  %3 = alloca ptr, align 8
  %4 = alloca ptr, align 8
  %5 = alloca i8, align 1
  store ptr %0, ptr %3, align 8, !tbaa !43
  store ptr %1, ptr %4, align 8, !tbaa !43
  call void @llvm.lifetime.start.p0(i64 1, ptr %5) #3
  %6 = load ptr, ptr %3, align 8, !tbaa !43
  %7 = load i8, ptr %6, align 1, !tbaa !45, !range !17, !noundef !18
  %8 = trunc i8 %7 to i1
  %9 = zext i1 %8 to i8
  store i8 %9, ptr %5, align 1, !tbaa !45
  %10 = load ptr, ptr %4, align 8, !tbaa !43
  %11 = load i8, ptr %10, align 1, !tbaa !45, !range !17, !noundef !18
  %12 = trunc i8 %11 to i1
  %13 = load ptr, ptr %3, align 8, !tbaa !43
  %14 = zext i1 %12 to i8
  store i8 %14, ptr %13, align 1, !tbaa !45
  %15 = load i8, ptr %5, align 1, !tbaa !45, !range !17, !noundef !18
  %16 = trunc i8 %15 to i1
  %17 = load ptr, ptr %4, align 8, !tbaa !43
  %18 = zext i1 %16 to i8
  store i8 %18, ptr %17, align 1, !tbaa !45
  call void @llvm.lifetime.end.p0(i64 1, ptr %5) #3
  ret void
}

; Function Attrs: inlinehint mustprogress nounwind uwtable
define linkonce_odr void @_ZSt4swapIPSiENSt9enable_ifIXsr6__and_ISt6__not_ISt15__is_tuple_likeIT_EESt21is_move_constructibleIS4_ESt18is_move_assignableIS4_EEE5valueEvE4typeERS4_SD_(ptr noundef nonnull align 8 dereferenceable(8) %0, ptr noundef nonnull align 8 dereferenceable(8) %1) #8 comdat {
  %3 = alloca ptr, align 8
  %4 = alloca ptr, align 8
  %5 = alloca ptr, align 8
  store ptr %0, ptr %3, align 8, !tbaa !41
  store ptr %1, ptr %4, align 8, !tbaa !41
  call void @llvm.lifetime.start.p0(i64 8, ptr %5) #3
  %6 = load ptr, ptr %3, align 8, !tbaa !41
  %7 = load ptr, ptr %6, align 8, !tbaa !35
  store ptr %7, ptr %5, align 8, !tbaa !35
  %8 = load ptr, ptr %4, align 8, !tbaa !41
  %9 = load ptr, ptr %8, align 8, !tbaa !35
  %10 = load ptr, ptr %3, align 8, !tbaa !41
  store ptr %9, ptr %10, align 8, !tbaa !35
  %11 = load ptr, ptr %5, align 8, !tbaa !35
  %12 = load ptr, ptr %4, align 8, !tbaa !41
  store ptr %11, ptr %12, align 8, !tbaa !35
  call void @llvm.lifetime.end.p0(i64 8, ptr %5) #3
  ret void
}

; Function Attrs: inlinehint mustprogress nounwind uwtable
define linkonce_odr void @_ZSt4swapIiENSt9enable_ifIXsr6__and_ISt6__not_ISt15__is_tuple_likeIT_EESt21is_move_constructibleIS3_ESt18is_move_assignableIS3_EEE5valueEvE4typeERS3_SC_(ptr noundef nonnull align 4 dereferenceable(4) %0, ptr noundef nonnull align 4 dereferenceable(4) %1) #8 comdat {
  %3 = alloca ptr, align 8
  %4 = alloca ptr, align 8
  %5 = alloca i32, align 4
  store ptr %0, ptr %3, align 8, !tbaa !39
  store ptr %1, ptr %4, align 8, !tbaa !39
  call void @llvm.lifetime.start.p0(i64 4, ptr %5) #3
  %6 = load ptr, ptr %3, align 8, !tbaa !39
  %7 = load i32, ptr %6, align 4, !tbaa !23
  store i32 %7, ptr %5, align 4, !tbaa !23
  %8 = load ptr, ptr %4, align 8, !tbaa !39
  %9 = load i32, ptr %8, align 4, !tbaa !23
  %10 = load ptr, ptr %3, align 8, !tbaa !39
  store i32 %9, ptr %10, align 4, !tbaa !23
  %11 = load i32, ptr %5, align 4, !tbaa !23
  %12 = load ptr, ptr %4, align 8, !tbaa !39
  store i32 %11, ptr %12, align 4, !tbaa !23
  call void @llvm.lifetime.end.p0(i64 4, ptr %5) #3
  ret void
}

; Function Attrs: inlinehint mustprogress nounwind uwtable
define linkonce_odr void @_ZSt4swapIP8_IO_FILEENSt9enable_ifIXsr6__and_ISt6__not_ISt15__is_tuple_likeIT_EESt21is_move_constructibleIS5_ESt18is_move_assignableIS5_EEE5valueEvE4typeERS5_SE_(ptr noundef nonnull align 8 dereferenceable(8) %0, ptr noundef nonnull align 8 dereferenceable(8) %1) #8 comdat {
  %3 = alloca ptr, align 8
  %4 = alloca ptr, align 8
  %5 = alloca ptr, align 8
  store ptr %0, ptr %3, align 8, !tbaa !36
  store ptr %1, ptr %4, align 8, !tbaa !36
  call void @llvm.lifetime.start.p0(i64 8, ptr %5) #3
  %6 = load ptr, ptr %3, align 8, !tbaa !36
  %7 = load ptr, ptr %6, align 8, !tbaa !34
  store ptr %7, ptr %5, align 8, !tbaa !34
  %8 = load ptr, ptr %4, align 8, !tbaa !36
  %9 = load ptr, ptr %8, align 8, !tbaa !34
  %10 = load ptr, ptr %3, align 8, !tbaa !36
  store ptr %9, ptr %10, align 8, !tbaa !34
  %11 = load ptr, ptr %5, align 8, !tbaa !34
  %12 = load ptr, ptr %4, align 8, !tbaa !36
  store ptr %11, ptr %12, align 8, !tbaa !34
  call void @llvm.lifetime.end.p0(i64 8, ptr %5) #3
  ret void
}

; Function Attrs: mustprogress nounwind uwtable
define void @_ZN6marisa8grimoire2io6Reader4swapERS2_(ptr noundef nonnull align 8 dereferenceable(25) %0, ptr noundef nonnull align 8 dereferenceable(25) %1) #4 align 2 {
  %3 = alloca ptr, align 8
  %4 = alloca ptr, align 8
  store ptr %0, ptr %3, align 8, !tbaa !3
  store ptr %1, ptr %4, align 8, !tbaa !3
  %5 = load ptr, ptr %3, align 8
  %6 = getelementptr inbounds nuw %"class.marisa::grimoire::io::Reader", ptr %5, i32 0, i32 0
  %7 = load ptr, ptr %4, align 8, !tbaa !3
  %8 = getelementptr inbounds nuw %"class.marisa::grimoire::io::Reader", ptr %7, i32 0, i32 0
  call void @_ZSt4swapIP8_IO_FILEENSt9enable_ifIXsr6__and_ISt6__not_ISt15__is_tuple_likeIT_EESt21is_move_constructibleIS5_ESt18is_move_assignableIS5_EEE5valueEvE4typeERS5_SE_(ptr noundef nonnull align 8 dereferenceable(8) %6, ptr noundef nonnull align 8 dereferenceable(8) %8) #3
  %9 = getelementptr inbounds nuw %"class.marisa::grimoire::io::Reader", ptr %5, i32 0, i32 1
  %10 = load ptr, ptr %4, align 8, !tbaa !3
  %11 = getelementptr inbounds nuw %"class.marisa::grimoire::io::Reader", ptr %10, i32 0, i32 1
  call void @_ZSt4swapIiENSt9enable_ifIXsr6__and_ISt6__not_ISt15__is_tuple_likeIT_EESt21is_move_constructibleIS3_ESt18is_move_assignableIS3_EEE5valueEvE4typeERS3_SC_(ptr noundef nonnull align 4 dereferenceable(4) %9, ptr noundef nonnull align 4 dereferenceable(4) %11) #3
  %12 = getelementptr inbounds nuw %"class.marisa::grimoire::io::Reader", ptr %5, i32 0, i32 3
  %13 = load ptr, ptr %4, align 8, !tbaa !3
  %14 = getelementptr inbounds nuw %"class.marisa::grimoire::io::Reader", ptr %13, i32 0, i32 3
  call void @_ZSt4swapIPSiENSt9enable_ifIXsr6__and_ISt6__not_ISt15__is_tuple_likeIT_EESt21is_move_constructibleIS4_ESt18is_move_assignableIS4_EEE5valueEvE4typeERS4_SD_(ptr noundef nonnull align 8 dereferenceable(8) %12, ptr noundef nonnull align 8 dereferenceable(8) %14) #3
  %15 = getelementptr inbounds nuw %"class.marisa::grimoire::io::Reader", ptr %5, i32 0, i32 4
  %16 = load ptr, ptr %4, align 8, !tbaa !3
  %17 = getelementptr inbounds nuw %"class.marisa::grimoire::io::Reader", ptr %16, i32 0, i32 4
  call void @_ZSt4swapIbENSt9enable_ifIXsr6__and_ISt6__not_ISt15__is_tuple_likeIT_EESt21is_move_constructibleIS3_ESt18is_move_assignableIS3_EEE5valueEvE4typeERS3_SC_(ptr noundef nonnull align 1 dereferenceable(1) %15, ptr noundef nonnull align 1 dereferenceable(1) %17) #3
  ret void
}

; Function Attrs: mustprogress uwtable
define void @_ZN6marisa8grimoire2io6Reader5clearEv(ptr noundef nonnull align 8 dereferenceable(25) %0) #6 align 2 personality ptr @__gxx_personality_v0 {
  %2 = alloca ptr, align 8
  %3 = alloca %"class.marisa::grimoire::io::Reader", align 8
  %4 = alloca ptr, align 8
  %5 = alloca i32, align 4
  store ptr %0, ptr %2, align 8, !tbaa !3
  %6 = load ptr, ptr %2, align 8
  call void @llvm.lifetime.start.p0(i64 32, ptr %3) #3
  call void @_ZN6marisa8grimoire2io6ReaderC1Ev(ptr noundef nonnull align 8 dereferenceable(25) %3)
  invoke void @_ZN6marisa8grimoire2io6Reader4swapERS2_(ptr noundef nonnull align 8 dereferenceable(25) %3, ptr noundef nonnull align 8 dereferenceable(25) %6)
          to label %7 unwind label %8

7:                                                ; preds = %1
  call void @_ZN6marisa8grimoire2io6ReaderD1Ev(ptr noundef nonnull align 8 dereferenceable(25) %3) #3
  call void @llvm.lifetime.end.p0(i64 32, ptr %3) #3
  ret void

8:                                                ; preds = %1
  %9 = landingpad { ptr, i32 }
          cleanup
  %10 = extractvalue { ptr, i32 } %9, 0
  store ptr %10, ptr %4, align 8
  %11 = extractvalue { ptr, i32 } %9, 1
  store i32 %11, ptr %5, align 4
  call void @_ZN6marisa8grimoire2io6ReaderD1Ev(ptr noundef nonnull align 8 dereferenceable(25) %3) #3
  call void @llvm.lifetime.end.p0(i64 32, ptr %3) #3
  br label %12

12:                                               ; preds = %8
  %13 = load ptr, ptr %4, align 8
  %14 = load i32, ptr %5, align 4
  %15 = insertvalue { ptr, i32 } poison, ptr %13, 0
  %16 = insertvalue { ptr, i32 } %15, i32 %14, 1
  resume { ptr, i32 } %16
}