; Function Attrs: mustprogress uwtable
define void @_ZN6marisa8grimoire2io6Reader5clearEv(ptr noundef nonnull align 8 captures(none) dereferenceable(25) %0) local_unnamed_addr #8 align 2 personality ptr @__gxx_personality_v0 {
  %2 = alloca %"class.marisa::grimoire::io::Reader", align 8
  call void @llvm.lifetime.start.p0(i64 32, ptr nonnull %2) #19
  call void @_ZN6marisa8grimoire2io6ReaderC1Ev(ptr noundef nonnull align 8 dereferenceable(25) %2)
  %3 = load ptr, ptr %2, align 8, !tbaa !27
  %4 = load ptr, ptr %0, align 8, !tbaa !27
  store ptr %4, ptr %2, align 8, !tbaa !27
  store ptr %3, ptr %0, align 8, !tbaa !27
  %5 = getelementptr inbounds nuw i8, ptr %2, i64 8
  %6 = getelementptr inbounds nuw i8, ptr %0, i64 8
  %7 = load i32, ptr %5, align 8, !tbaa !28
  %8 = load i32, ptr %6, align 8, !tbaa !28
  store i32 %8, ptr %5, align 8, !tbaa !28
  store i32 %7, ptr %6, align 8, !tbaa !28
  %9 = getelementptr inbounds nuw i8, ptr %2, i64 16
  %10 = getelementptr inbounds nuw i8, ptr %0, i64 16
  %11 = load ptr, ptr %9, align 8, !tbaa !29
  %12 = load ptr, ptr %10, align 8, !tbaa !29
  store ptr %12, ptr %9, align 8, !tbaa !29
  store ptr %11, ptr %10, align 8, !tbaa !29
  %13 = getelementptr inbounds nuw i8, ptr %2, i64 24
  %14 = getelementptr inbounds nuw i8, ptr %0, i64 24
  %15 = load i8, ptr %13, align 8, !tbaa !30, !range !15, !noundef !16
  %16 = load i8, ptr %14, align 8, !tbaa !30, !range !15, !noundef !16
  store i8 %16, ptr %13, align 8, !tbaa !30
  store i8 %15, ptr %14, align 8, !tbaa !30
  call void @_ZN6marisa8grimoire2io6ReaderD1Ev(ptr noundef nonnull align 8 dereferenceable(25) %2) #19
  call void @llvm.lifetime.end.p0(i64 32, ptr nonnull %2) #19
  ret void
}